target datalayout = "e-m:e-p270:32:32-p271:32:32-p272:64:64-i64:64-i128:128-f80:128-n8:16:32:64-S128"
target triple = "x86_64-pc-linux-gnu"

%struct.ident_t = type { i32, i32, i32, i32, ptr }

@2 = private unnamed_addr constant %struct.ident_t { i32 0, i32 2, i32 0, i32 22, ptr @0 }, align 8

; Function Attrs: mustprogress nounwind uwtable
define void @_ZN5faiss13fvec_norms_L2EPfPKfmm(ptr noalias noundef %0, ptr noalias noundef %1, i64 noundef %2, i64 noundef %3) #0 {
  %5 = alloca ptr, align 8
  %6 = alloca ptr, align 8
  %7 = alloca i64, align 8
  %8 = alloca i64, align 8
  %9 = alloca i32, align 4
  %10 = alloca i32, align 4
  %11 = call i32 @__kmpc_global_thread_num(ptr @2)
  store ptr %0, ptr %5, align 8
  store ptr %1, ptr %6, align 8
  store i64 %2, ptr %7, align 8
  store i64 %3, ptr %8, align 8
  %12 = load i64, ptr %8, align 8
  %13 = icmp ugt i64 %12, 10000
  br i1 %13, label %14, label %15

14:                                               ; preds = %4
  call void (ptr, i32, ptr, ...) @__kmpc_fork_call(ptr @2, i32 4, ptr @_ZN5faiss13fvec_norms_L2EPfPKfmm.omp_outlined, ptr %8, ptr %5, ptr %6, ptr %7)
  br label %16

15:                                               ; preds = %4
  call void @__kmpc_serialized_parallel(ptr @2, i32 %11)
  store i32 %11, ptr %9, align 4
  store i32 0, ptr %10, align 4
  call void @_ZN5faiss13fvec_norms_L2EPfPKfmm.omp_outlined(ptr %9, ptr %10, ptr %8, ptr %5, ptr %6, ptr %7) #2
  call void @__kmpc_end_serialized_parallel(ptr @2, i32 %11)
  br label %16

16:                                               ; preds = %15, %14
  ret void
}