; Function Attrs: mustprogress nounwind uwtable
define void @_ZN5faiss13fvec_norms_L2EPfPKfmm(ptr noalias noundef %0, ptr noalias noundef %1, i64 noundef %2, i64 noundef %3) local_unnamed_addr #0 {
  %5 = alloca ptr, align 8
  %6 = alloca ptr, align 8
  %7 = alloca i64, align 8
  %8 = alloca i64, align 8
  %9 = alloca i32, align 4
  %10 = tail call i32 @__kmpc_global_thread_num(ptr nonnull @2)
  store ptr %0, ptr %5, align 8
  store ptr %1, ptr %6, align 8
  store i64 %2, ptr %7, align 8
  store i64 %3, ptr %8, align 8
  %11 = icmp ugt i64 %3, 10000
  br i1 %11, label %12, label %13

12:                                               ; preds = %4
  call void (ptr, i32, ptr, ...) @__kmpc_fork_call(ptr nonnull @2, i32 4, ptr nonnull @_ZN5faiss13fvec_norms_L2EPfPKfmm.omp_outlined, ptr nonnull %8, ptr nonnull %5, ptr nonnull %6, ptr nonnull %7)
  br label %14

13:                                               ; preds = %4
  tail call void @__kmpc_serialized_parallel(ptr nonnull @2, i32 %10)
  store i32 %10, ptr %9, align 4
  call void @_ZN5faiss13fvec_norms_L2EPfPKfmm.omp_outlined(ptr nonnull %9, ptr nonnull poison, ptr %8, ptr %5, ptr %6, ptr %7) #2
  tail call void @__kmpc_end_serialized_parallel(ptr nonnull @2, i32 %10)
  br label %14

14:                                               ; preds = %13, %12
  ret void
}